target datalayout = "e-m:e-p270:32:32-p271:32:32-p272:64:64-i64:64-i128:128-f80:128-n8:16:32:64-S128"
target triple = "x86_64-pc-linux-gnu"

@color_output = internal global i32 1, align 4
@.str.25 = private unnamed_addr constant [3 x i8] c"%s\00", align 1
@.str.30 = private unnamed_addr constant [7 x i8] c"  %s: \00", align 1

; Function Attrs: nounwind uwtable
define internal void @msg_start(ptr noundef %0, ptr noundef %1) #0 {
  %3 = alloca ptr, align 8
  %4 = alloca ptr, align 8
  store ptr %0, ptr %3, align 8, !tbaa !3
  store ptr %1, ptr %4, align 8, !tbaa !3
  %5 = load i32, ptr @color_output, align 4, !tbaa !8
  %6 = icmp ne i32 %5, 0
  br i1 %6, label %7, label %9

7:                                                ; preds = %2
  %8 = load ptr, ptr %3, align 8, !tbaa !3
  call void (ptr, ...) @print_errormsg(ptr noundef @.str.25, ptr noundef %8)
  br label %9

9:                                                ; preds = %7, %2
  %10 = load ptr, ptr %4, align 8, !tbaa !3
  call void (ptr, ...) @print_errormsg(ptr noundef @.str.30, ptr noundef %10)
  ret void
}