; Function Attrs: nofree nounwind uwtable
define internal fastcc void @msg_start(ptr noundef %0, ptr noundef %1) unnamed_addr #0 {
  %3 = load i32, ptr @color_output, align 4, !tbaa !3
  %.not = icmp eq i32 %3, 0
  br i1 %.not, label %5, label %4

4:                                                ; preds = %2
  tail call void (ptr, ...) @print_errormsg(ptr noundef nonnull @.str.25, ptr noundef %0)
  br label %5

5:                                                ; preds = %4, %2
  tail call void (ptr, ...) @print_errormsg(ptr noundef nonnull @.str.30, ptr noundef %1)
  ret void
}